; Function Attrs: mustprogress nofree norecurse nosync nounwind willreturn memory(read, inaccessiblemem: none) uwtable
define dso_local noundef zeroext i1 @_ZN5clang17ExternalASTMerger20HasImporterForOriginERNS_10ASTContextE(ptr nocapture noundef nonnull readonly align 8 dereferenceable(128) %0, ptr noundef nonnull readnone align 8 dereferenceable(23096) %1) local_unnamed_addr #1 align 2 {
  %3 = getelementptr inbounds nuw i8, ptr %0, i64 16
  %4 = load ptr, ptr %3, align 8
  %5 = getelementptr inbounds i8, ptr %0, i64 24
  %6 = load ptr, ptr %5, align 8
  %.not = icmp eq ptr %4, %6
  br i1 %.not, label %._crit_edge, label %.lr.ph

.lr.ph:                                           ; preds = %2, %.lr.ph
  %.sroa.06.09 = phi ptr [ %11, %.lr.ph ], [ %4, %2 ]
  %7 = load ptr, ptr %.sroa.06.09, align 8
  %8 = getelementptr inbounds nuw i8, ptr %7, i64 280128
  %9 = load ptr, ptr %8, align 8
  %10 = icmp eq ptr %9, %1
  %11 = getelementptr inbounds i8, ptr %.sroa.06.09, i64 8
  %.not12 = icmp eq ptr %11, %6
  %or.cond = select i1 %10, i1 true, i1 %.not12
  br i1 %or.cond, label %._crit_edge, label %.lr.ph

._crit_edge:                                      ; preds = %.lr.ph, %2
  %.lcssa = phi i1 [ false, %2 ], [ %10, %.lr.ph ]
  ret i1 %.lcssa
}